; Function Attrs: nounwind uwtable
define dso_local noundef zeroext i1 @range_contains_internal(ptr noundef %0, ptr noundef %1, ptr noundef %2) local_unnamed_addr #0 {
  %4 = alloca %struct.RangeBound, align 8
  %5 = alloca %struct.RangeBound, align 8
  %6 = alloca i8, align 1
  %7 = alloca %struct.RangeBound, align 8
  %8 = alloca %struct.RangeBound, align 8
  %9 = alloca i8, align 1
  call void @llvm.lifetime.start.p0(i64 16, ptr nonnull %4) #14
  call void @llvm.lifetime.start.p0(i64 16, ptr nonnull %5) #14
  call void @llvm.lifetime.start.p0(i64 1, ptr nonnull %6) #14
  call void @llvm.lifetime.start.p0(i64 16, ptr nonnull %7) #14
  call void @llvm.lifetime.start.p0(i64 16, ptr nonnull %8) #14
  call void @llvm.lifetime.start.p0(i64 1, ptr nonnull %9) #14
  %10 = getelementptr inbounds nuw i8, ptr %1, i64 4
  %11 = load i32, ptr %10, align 4
  %12 = getelementptr inbounds nuw i8, ptr %2, i64 4
  %13 = load i32, ptr %12, align 4
  %.not = icmp eq i32 %11, %13
  br i1 %.not, label %17, label %14

14:                                               ; preds = %3
  %15 = tail call zeroext i1 @errstart_cold(i32 noundef 21, ptr noundef null) #16
  tail call void @llvm.assume(i1 %15)
  %16 = tail call i32 (ptr, ...) @errmsg_internal(ptr noundef nonnull @.str.2) #14
  tail call void @errfinish(ptr noundef nonnull @.str.1, i32 noundef 2597, ptr noundef nonnull @__func__.range_contains_internal) #14
  unreachable

17:                                               ; preds = %3
  call void @range_deserialize(ptr noundef %0, ptr noundef nonnull %1, ptr noundef nonnull %4, ptr noundef nonnull %5, ptr noundef nonnull %6)
  call void @range_deserialize(ptr noundef %0, ptr noundef nonnull %2, ptr noundef nonnull %7, ptr noundef nonnull %8, ptr noundef nonnull %9)
  %18 = load i8, ptr %9, align 1, !range !7, !noundef !8
  %19 = trunc nuw i8 %18 to i1
  br i1 %19, label %range_cmp_bounds.exit.thread18, label %20

20:                                               ; preds = %17
  %21 = load i8, ptr %6, align 1, !range !7, !noundef !8
  %22 = trunc nuw i8 %21 to i1
  br i1 %22, label %range_cmp_bounds.exit.thread18, label %23

23:                                               ; preds = %20
  %24 = getelementptr inbounds nuw i8, ptr %4, i64 8
  %25 = load i8, ptr %24, align 8, !range !7, !noundef !8
  %26 = trunc nuw i8 %25 to i1
  %27 = getelementptr inbounds nuw i8, ptr %7, i64 8
  %28 = load i8, ptr %27, align 8, !range !7, !noundef !8
  %29 = trunc nuw i8 %28 to i1
  br i1 %26, label %30, label %41

30:                                               ; preds = %23
  %31 = getelementptr inbounds nuw i8, ptr %4, i64 10
  %32 = load i8, ptr %31, align 2, !range !7, !noundef !8
  br i1 %29, label %33, label %39

33:                                               ; preds = %30
  %34 = getelementptr inbounds nuw i8, ptr %7, i64 10
  %35 = load i8, ptr %34, align 2, !range !7, !noundef !8
  %36 = icmp eq i8 %32, %35
  br i1 %36, label %range_cmp_bounds.exit.thread, label %37

37:                                               ; preds = %33
  %38 = trunc nuw i8 %32 to i1
  br i1 %38, label %range_cmp_bounds.exit.thread, label %range_cmp_bounds.exit.thread18

39:                                               ; preds = %30
  %40 = trunc nuw i8 %32 to i1
  br i1 %40, label %range_cmp_bounds.exit.thread, label %range_cmp_bounds.exit.thread18

41:                                               ; preds = %23
  br i1 %29, label %42, label %46

42:                                               ; preds = %41
  %43 = getelementptr inbounds nuw i8, ptr %7, i64 10
  %44 = load i8, ptr %43, align 2, !range !7, !noundef !8
  %45 = trunc nuw i8 %44 to i1
  br i1 %45, label %range_cmp_bounds.exit.thread18, label %range_cmp_bounds.exit.thread

46:                                               ; preds = %41
  %47 = getelementptr inbounds nuw i8, ptr %0, i64 296
  %48 = getelementptr inbounds nuw i8, ptr %0, i64 292
  %49 = load i32, ptr %48, align 4
  %50 = load i64, ptr %4, align 8
  %51 = load i64, ptr %7, align 8
  %52 = tail call i64 @FunctionCall2Coll(ptr noundef nonnull %47, i32 noundef %49, i64 noundef %50, i64 noundef %51) #14
  %53 = trunc i64 %52 to i32
  %54 = icmp eq i32 %53, 0
  br i1 %54, label %55, label %range_cmp_bounds.exit

55:                                               ; preds = %46
  %56 = getelementptr inbounds nuw i8, ptr %4, i64 9
  %57 = load i8, ptr %56, align 1, !range !7, !noundef !8
  %58 = trunc nuw i8 %57 to i1
  %59 = getelementptr inbounds nuw i8, ptr %7, i64 9
  %60 = load i8, ptr %59, align 1, !range !7, !noundef !8
  %61 = trunc nuw i8 %60 to i1
  br i1 %58, label %73, label %62

62:                                               ; preds = %55
  %63 = getelementptr inbounds nuw i8, ptr %4, i64 10
  %64 = load i8, ptr %63, align 2, !range !7, !noundef !8
  br i1 %61, label %71, label %65

65:                                               ; preds = %62
  %66 = getelementptr inbounds nuw i8, ptr %7, i64 10
  %67 = load i8, ptr %66, align 2, !range !7, !noundef !8
  %68 = icmp eq i8 %64, %67
  br i1 %68, label %range_cmp_bounds.exit.thread, label %69

69:                                               ; preds = %65
  %70 = trunc nuw i8 %64 to i1
  br i1 %70, label %range_cmp_bounds.exit.thread18, label %range_cmp_bounds.exit.thread

71:                                               ; preds = %62
  %72 = trunc nuw i8 %64 to i1
  br i1 %72, label %range_cmp_bounds.exit.thread18, label %range_cmp_bounds.exit.thread

73:                                               ; preds = %55
  br i1 %61, label %range_cmp_bounds.exit.thread, label %74

74:                                               ; preds = %73
  %75 = getelementptr inbounds nuw i8, ptr %7, i64 10
  %76 = load i8, ptr %75, align 2, !range !7, !noundef !8
  %77 = trunc nuw i8 %76 to i1
  br i1 %77, label %range_cmp_bounds.exit.thread, label %range_cmp_bounds.exit.thread18

range_cmp_bounds.exit:                            ; preds = %46
  %78 = icmp sgt i32 %53, 0
  br i1 %78, label %range_cmp_bounds.exit.thread18, label %range_cmp_bounds.exit.thread

range_cmp_bounds.exit.thread:                     ; preds = %74, %39, %37, %73, %65, %33, %69, %71, %42, %range_cmp_bounds.exit
  %79 = getelementptr inbounds nuw i8, ptr %5, i64 8
  %80 = load i8, ptr %79, align 8, !range !7, !noundef !8
  %81 = trunc nuw i8 %80 to i1
  %82 = getelementptr inbounds nuw i8, ptr %8, i64 8
  %83 = load i8, ptr %82, align 8, !range !7, !noundef !8
  %84 = trunc nuw i8 %83 to i1
  br i1 %81, label %85, label %96

85:                                               ; preds = %range_cmp_bounds.exit.thread
  %86 = getelementptr inbounds nuw i8, ptr %5, i64 10
  %87 = load i8, ptr %86, align 2, !range !7, !noundef !8
  br i1 %84, label %88, label %94

88:                                               ; preds = %85
  %89 = getelementptr inbounds nuw i8, ptr %8, i64 10
  %90 = load i8, ptr %89, align 2, !range !7, !noundef !8
  %91 = icmp eq i8 %87, %90
  br i1 %91, label %range_cmp_bounds.exit.thread18, label %92

92:                                               ; preds = %88
  %93 = trunc nuw i8 %87 to i1
  br i1 %93, label %range_cmp_bounds.exit10.thread29, label %range_cmp_bounds.exit.thread18

94:                                               ; preds = %85
  %95 = trunc nuw i8 %87 to i1
  br i1 %95, label %range_cmp_bounds.exit10.thread29, label %range_cmp_bounds.exit.thread18

96:                                               ; preds = %range_cmp_bounds.exit.thread
  br i1 %84, label %97, label %101

97:                                               ; preds = %96
  %98 = getelementptr inbounds nuw i8, ptr %8, i64 10
  %99 = load i8, ptr %98, align 2, !range !7, !noundef !8
  %100 = trunc nuw i8 %99 to i1
  br i1 %100, label %range_cmp_bounds.exit.thread18, label %range_cmp_bounds.exit10.thread29

101:                                              ; preds = %96
  %102 = getelementptr inbounds nuw i8, ptr %0, i64 296
  %103 = getelementptr inbounds nuw i8, ptr %0, i64 292
  %104 = load i32, ptr %103, align 4
  %105 = load i64, ptr %5, align 8
  %106 = load i64, ptr %8, align 8
  %107 = tail call i64 @FunctionCall2Coll(ptr noundef nonnull %102, i32 noundef %104, i64 noundef %105, i64 noundef %106) #14
  %.fr32 = freeze i64 %107
  %108 = trunc i64 %.fr32 to i32
  %109 = icmp eq i32 %108, 0
  br i1 %109, label %110, label %range_cmp_bounds.exit10

110:                                              ; preds = %101
  %111 = getelementptr inbounds nuw i8, ptr %5, i64 9
  %112 = load i8, ptr %111, align 1, !range !7, !noundef !8
  %113 = trunc nuw i8 %112 to i1
  %114 = getelementptr inbounds nuw i8, ptr %8, i64 9
  %115 = load i8, ptr %114, align 1, !range !7, !noundef !8
  %116 = trunc nuw i8 %115 to i1
  br i1 %113, label %128, label %117

117:                                              ; preds = %110
  %118 = getelementptr inbounds nuw i8, ptr %5, i64 10
  %119 = load i8, ptr %118, align 2, !range !7, !noundef !8
  br i1 %116, label %126, label %120

120:                                              ; preds = %117
  %121 = getelementptr inbounds nuw i8, ptr %8, i64 10
  %122 = load i8, ptr %121, align 2, !range !7, !noundef !8
  %123 = icmp eq i8 %119, %122
  br i1 %123, label %range_cmp_bounds.exit.thread18, label %124

124:                                              ; preds = %120
  %125 = trunc nuw i8 %119 to i1
  br i1 %125, label %range_cmp_bounds.exit.thread18, label %range_cmp_bounds.exit10.thread29

126:                                              ; preds = %117
  %127 = trunc nuw i8 %119 to i1
  br i1 %127, label %range_cmp_bounds.exit.thread18, label %range_cmp_bounds.exit10.thread29

128:                                              ; preds = %110
  br i1 %116, label %range_cmp_bounds.exit.thread18, label %129

129:                                              ; preds = %128
  %130 = getelementptr inbounds nuw i8, ptr %8, i64 10
  %131 = load i8, ptr %130, align 2, !range !7, !noundef !8
  %132 = trunc nuw i8 %131 to i1
  br i1 %132, label %range_cmp_bounds.exit10.thread29, label %range_cmp_bounds.exit.thread18

range_cmp_bounds.exit10:                          ; preds = %101
  %133 = icmp slt i32 %108, 0
  br i1 %133, label %range_cmp_bounds.exit10.thread29, label %range_cmp_bounds.exit.thread18

range_cmp_bounds.exit10.thread29:                 ; preds = %129, %94, %92, %124, %126, %97, %range_cmp_bounds.exit10
  br label %range_cmp_bounds.exit.thread18

range_cmp_bounds.exit.thread18:                   ; preds = %124, %126, %97, %128, %120, %88, %129, %94, %92, %69, %71, %42, %74, %39, %37, %range_cmp_bounds.exit10.thread29, %range_cmp_bounds.exit10, %range_cmp_bounds.exit, %20, %17
  %.0 = phi i1 [ true, %17 ], [ false, %20 ], [ false, %range_cmp_bounds.exit ], [ false, %range_cmp_bounds.exit10.thread29 ], [ true, %range_cmp_bounds.exit10 ], [ false, %37 ], [ false, %39 ], [ false, %74 ], [ false, %42 ], [ false, %71 ], [ false, %69 ], [ true, %92 ], [ true, %94 ], [ true, %129 ], [ true, %88 ], [ true, %120 ], [ true, %128 ], [ true, %97 ], [ true, %126 ], [ true, %124 ]
  call void @llvm.lifetime.end.p0(i64 1, ptr nonnull %9) #14
  call void @llvm.lifetime.end.p0(i64 16, ptr nonnull %8) #14
  call void @llvm.lifetime.end.p0(i64 16, ptr nonnull %7) #14
  call void @llvm.lifetime.end.p0(i64 1, ptr nonnull %6) #14
  call void @llvm.lifetime.end.p0(i64 16, ptr nonnull %5) #14
  call void @llvm.lifetime.end.p0(i64 16, ptr nonnull %4) #14
  ret i1 %.0
}